; Function Attrs: mustprogress uwtable
define hidden void @_ZN3ue219makeBoundaryProgramERKNS_13RoseBuildImplERKSt3setIjSt4lessIjESaIjEE(ptr dead_on_unwind noalias writable sret(%"class.ue2::RoseProgram") align 8 initializes((0, 24)) %0, ptr noundef nonnull readonly align 8 captures(none) dereferenceable(780) %1, ptr noundef nonnull readonly align 8 dereferenceable(48) %2) local_unnamed_addr #0 personality ptr @__gxx_personality_v0 {
  tail call void @llvm.memset.p0.i64(ptr noundef nonnull align 8 dereferenceable(24) %0, i8 0, i64 24, i1 false)
  %4 = invoke noalias noundef nonnull dereferenceable(8) ptr @_Znwm(i64 noundef 8) #27
          to label %_ZNKSt6vectorISt10unique_ptrIN3ue215RoseInstructionESt14default_deleteIS2_EESaIS5_EE12_M_check_lenEmPKc.exit.i.i.i.i unwind label %6

_ZNKSt6vectorISt10unique_ptrIN3ue215RoseInstructionESt14default_deleteIS2_EESaIS5_EE12_M_check_lenEmPKc.exit.i.i.i.i: ; preds = %3
  store ptr getelementptr inbounds nuw inrange(-16, 72) (i8, ptr @_ZTVN3ue212RoseInstrEndE, i64 16), ptr %4, align 8, !noalias !492
  %5 = invoke noalias noundef nonnull dereferenceable(8) ptr @_Znwm(i64 noundef 8) #27
          to label %_ZN3ue211RoseProgramC2Ev.exit unwind label %_ZNSt10unique_ptrIN3ue212RoseInstrEndESt14default_deleteIS1_EED2Ev.exit11.i

6:                                                ; preds = %3
  %7 = landingpad { ptr, i32 }
          cleanup
  br label %10

_ZNSt10unique_ptrIN3ue212RoseInstrEndESt14default_deleteIS1_EED2Ev.exit11.i: ; preds = %_ZNKSt6vectorISt10unique_ptrIN3ue215RoseInstructionESt14default_deleteIS2_EESaIS5_EE12_M_check_lenEmPKc.exit.i.i.i.i
  %8 = landingpad { ptr, i32 }
          cleanup
  %9 = load ptr, ptr getelementptr inbounds nuw inrange(-24, 64) (i8, ptr @_ZTVN3ue212RoseInstrEndE, i64 24), align 8
  tail call void %9(ptr noundef nonnull align 8 dereferenceable(8) %4) #29
  br label %10

common.resume:                                    ; preds = %22, %10
  %common.resume.op = phi { ptr, i32 } [ %.pn.i, %10 ], [ %23, %22 ]
  resume { ptr, i32 } %common.resume.op

10:                                               ; preds = %_ZNSt10unique_ptrIN3ue212RoseInstrEndESt14default_deleteIS1_EED2Ev.exit11.i, %6
  %.pn.i = phi { ptr, i32 } [ %8, %_ZNSt10unique_ptrIN3ue212RoseInstrEndESt14default_deleteIS1_EED2Ev.exit11.i ], [ %7, %6 ]
  tail call void @_ZNSt6vectorISt10unique_ptrIN3ue215RoseInstructionESt14default_deleteIS2_EESaIS5_EED2Ev(ptr noundef nonnull align 8 dereferenceable(24) %0) #29
  br label %common.resume

_ZN3ue211RoseProgramC2Ev.exit:                    ; preds = %_ZNKSt6vectorISt10unique_ptrIN3ue215RoseInstructionESt14default_deleteIS2_EESaIS5_EE12_M_check_lenEmPKc.exit.i.i.i.i
  %11 = getelementptr inbounds nuw i8, ptr %0, i64 16
  %12 = getelementptr inbounds nuw i8, ptr %0, i64 8
  %13 = ptrtoint ptr %4 to i64
  store i64 %13, ptr %5, align 8
  %14 = getelementptr inbounds nuw i8, ptr %5, i64 8
  store ptr %5, ptr %0, align 8
  store ptr %14, ptr %12, align 8
  store ptr %14, ptr %11, align 8
  %15 = getelementptr inbounds nuw i8, ptr %2, i64 24
  %16 = load ptr, ptr %15, align 8
  %17 = getelementptr inbounds nuw i8, ptr %2, i64 8
  %.not10 = icmp eq ptr %16, %17
  br i1 %.not10, label %._crit_edge, label %.lr.ph

._crit_edge:                                      ; preds = %20, %_ZN3ue211RoseProgramC2Ev.exit
  ret void

.lr.ph:                                           ; preds = %_ZN3ue211RoseProgramC2Ev.exit, %20
  %.sroa.07.011 = phi ptr [ %21, %20 ], [ %16, %_ZN3ue211RoseProgramC2Ev.exit ]
  %18 = getelementptr inbounds nuw i8, ptr %.sroa.07.011, i64 32
  %19 = load i32, ptr %18, align 4
  invoke fastcc void @_ZN3ue2L10makeReportERKNS_13RoseBuildImplEjbRNS_11RoseProgramE(ptr noundef nonnull align 8 dereferenceable(780) %1, i32 noundef %19, i1 noundef zeroext false, ptr noundef nonnull align 8 dereferenceable(24) %0)
          to label %20 unwind label %22

20:                                               ; preds = %.lr.ph
  %21 = tail call noundef ptr @_ZSt18_Rb_tree_incrementPKSt18_Rb_tree_node_base(ptr noundef nonnull %.sroa.07.011) #31
  %.not = icmp eq ptr %21, %17
  br i1 %.not, label %._crit_edge, label %.lr.ph

22:                                               ; preds = %.lr.ph
  %23 = landingpad { ptr, i32 }
          cleanup
  tail call void @_ZN3ue211RoseProgramD2Ev(ptr noundef nonnull align 8 dereferenceable(24) %0) #29
  br label %common.resume
}